; Function Attrs: nounwind uwtable
define ptr @l_Lean_Meta_Grind_Arith_Cutsat_assertNatCast___lambda__4(ptr noundef %0, ptr noundef %1, ptr noundef %2, ptr noundef %3, ptr noundef %4, ptr noundef %5, ptr noundef %6, ptr noundef %7, ptr noundef %8, ptr noundef %9, ptr noundef %10, ptr noundef %11) local_unnamed_addr #0 {
  %13 = load ptr, ptr @l_Lean_Meta_Grind_Arith_Cutsat_assertNatCast___lambda__4___closed__1, align 8, !tbaa !4
  %14 = tail call ptr @l_Lean_Expr_cleanupAnnotations(ptr noundef %1) #4
  %15 = load ptr, ptr @l_Int_OfNat_ofDenoteAsIntExpr_x3f___lambda__7___closed__2, align 8, !tbaa !4
  %16 = tail call zeroext i8 @l_Lean_Expr_isConstOf(ptr noundef %14, ptr noundef %15) #4
  %17 = ptrtoint ptr %14 to i64
  %18 = and i64 %17, 1
  %.not = icmp eq i64 %18, 0
  br i1 %.not, label %19, label %lean_dec.exit33

19:                                               ; preds = %12
  %20 = load i32, ptr %14, align 4, !tbaa !8
  %21 = icmp sgt i32 %20, 1
  br i1 %21, label %22, label %24, !prof !11

22:                                               ; preds = %19
  %23 = add nsw i32 %20, -1
  store i32 %23, ptr %14, align 4, !tbaa !8
  br label %lean_dec.exit33

24:                                               ; preds = %19
  %.not.i = icmp eq i32 %20, 0
  br i1 %.not.i, label %lean_dec.exit33, label %25

25:                                               ; preds = %24
  tail call void @lean_dec_ref_cold(ptr noundef nonnull %14) #4
  br label %lean_dec.exit33

lean_dec.exit33:                                  ; preds = %25, %24, %22, %12
  %26 = icmp eq i8 %16, 0
  br i1 %26, label %27, label %47

27:                                               ; preds = %lean_dec.exit33
  %28 = ptrtoint ptr %2 to i64
  %29 = and i64 %28, 1
  %.not38 = icmp eq i64 %29, 0
  br i1 %.not38, label %30, label %lean_dec.exit32

30:                                               ; preds = %27
  %31 = load i32, ptr %2, align 4, !tbaa !8
  %32 = icmp sgt i32 %31, 1
  br i1 %32, label %33, label %35, !prof !11

33:                                               ; preds = %30
  %34 = add nsw i32 %31, -1
  store i32 %34, ptr %2, align 4, !tbaa !8
  br label %lean_dec.exit32

35:                                               ; preds = %30
  %.not.i34 = icmp eq i32 %31, 0
  br i1 %.not.i34, label %lean_dec.exit32, label %36

36:                                               ; preds = %35
  tail call void @lean_dec_ref_cold(ptr noundef nonnull %2) #4
  br label %lean_dec.exit32

lean_dec.exit32:                                  ; preds = %36, %35, %33, %27
  %37 = ptrtoint ptr %0 to i64
  %38 = and i64 %37, 1
  %.not39 = icmp eq i64 %38, 0
  br i1 %.not39, label %39, label %lean_dec.exit

39:                                               ; preds = %lean_dec.exit32
  %40 = load i32, ptr %0, align 4, !tbaa !8
  %41 = icmp sgt i32 %40, 1
  br i1 %41, label %42, label %44, !prof !11

42:                                               ; preds = %39
  %43 = add nsw i32 %40, -1
  store i32 %43, ptr %0, align 4, !tbaa !8
  br label %lean_dec.exit

44:                                               ; preds = %39
  %.not.i36 = icmp eq i32 %40, 0
  br i1 %.not.i36, label %lean_dec.exit, label %45

45:                                               ; preds = %44
  tail call void @lean_dec_ref_cold(ptr noundef nonnull %0) #4
  br label %lean_dec.exit

lean_dec.exit:                                    ; preds = %45, %44, %42, %lean_dec.exit32
  %46 = tail call ptr @lean_apply_10(ptr noundef %13, ptr noundef nonnull inttoptr (i64 1 to ptr), ptr noundef %3, ptr noundef %4, ptr noundef %5, ptr noundef %6, ptr noundef %7, ptr noundef %8, ptr noundef %9, ptr noundef %10, ptr noundef %11) #4
  br label %49

47:                                               ; preds = %lean_dec.exit33
  %48 = tail call ptr @l_Lean_Meta_Grind_Arith_Cutsat_assertNatCast___lambda__2(ptr noundef %2, ptr noundef %0, ptr nonnull poison, ptr noundef %3, ptr noundef %4, ptr noundef %5, ptr noundef %6, ptr noundef %7, ptr noundef %8, ptr noundef %9, ptr noundef %10, ptr noundef %11)
  br label %49

49:                                               ; preds = %47, %lean_dec.exit
  %.0 = phi ptr [ %46, %lean_dec.exit ], [ %48, %47 ]
  ret ptr %.0
}